target datalayout = "e-m:e-p270:32:32-p271:32:32-p272:64:64-i64:64-i128:128-f80:128-n8:16:32:64-S128"
target triple = "x86_64-unknown-linux-gnu"

%"class.boost::intrusive_ptr" = type { ptr }
%"class.std::vector.57" = type { %"struct.std::_Vector_base.58" }
%"struct.std::_Vector_base.58" = type { %"struct.std::_Vector_base<boost::intrusive_ptr<facebook::velox::Buffer>, std::allocator<boost::intrusive_ptr<facebook::velox::Buffer>>>::_Vector_impl" }
%"struct.std::_Vector_base<boost::intrusive_ptr<facebook::velox::Buffer>, std::allocator<boost::intrusive_ptr<facebook::velox::Buffer>>>::_Vector_impl" = type { %"struct.std::_Vector_base<boost::intrusive_ptr<facebook::velox::Buffer>, std::allocator<boost::intrusive_ptr<facebook::velox::Buffer>>>::_Vector_impl_data" }
%"struct.std::_Vector_base<boost::intrusive_ptr<facebook::velox::Buffer>, std::allocator<boost::intrusive_ptr<facebook::velox::Buffer>>>::_Vector_impl_data" = type { ptr, ptr, ptr }
%"class.facebook::velox::Buffer" = type { ptr, ptr, ptr, i64, i64, %"struct.std::atomic.84", i8, [2 x i64] }
%"struct.std::atomic.84" = type { %"struct.std::__atomic_base.85" }
%"struct.std::__atomic_base.85" = type { i32 }
%"class.__gnu_cxx::__normal_iterator.277" = type { ptr }
%"class.facebook::velox::serializer::spark::(anonymous namespace)::UnsafeRowVectorSerializer" = type { %"class.facebook::velox::VectorSerializer", ptr, %"class.std::vector.57" }
%"class.facebook::velox::VectorSerializer" = type { ptr }

; Function Attrs: mustprogress nounwind uwtable
define linkonce_odr noundef nonnull align 8 dereferenceable(8) ptr @_ZNK9__gnu_cxx17__normal_iteratorIPKN5boost13intrusive_ptrIN8facebook5velox6BufferEEESt6vectorIS6_SaIS6_EEE4baseEv(ptr noundef nonnull align 8 dereferenceable(8) %this) #0 comdat align 2 {
entry:
  %this.addr = alloca ptr, align 8
  store ptr %this, ptr %this.addr, align 8
  %this1 = load ptr, ptr %this.addr, align 8
  %_M_current = getelementptr inbounds %"class.__gnu_cxx::__normal_iterator.277", ptr %this1, i32 0, i32 0
  ret ptr %_M_current
}

; Function Attrs: mustprogress nounwind uwtable
define linkonce_odr void @_ZN9__gnu_cxx17__normal_iteratorIPKN5boost13intrusive_ptrIN8facebook5velox6BufferEEESt6vectorIS6_SaIS6_EEEC2ERKS8_(ptr noundef nonnull align 8 dereferenceable(8) %this, ptr noundef nonnull align 8 dereferenceable(8) %__i) unnamed_addr #0 comdat align 2 {
entry:
  %this.addr = alloca ptr, align 8
  %__i.addr = alloca ptr, align 8
  store ptr %this, ptr %this.addr, align 8
  store ptr %__i, ptr %__i.addr, align 8
  %this1 = load ptr, ptr %this.addr, align 8
  %_M_current = getelementptr inbounds %"class.__gnu_cxx::__normal_iterator.277", ptr %this1, i32 0, i32 0
  %0 = load ptr, ptr %__i.addr, align 8
  %1 = load ptr, ptr %0, align 8
  store ptr %1, ptr %_M_current, align 8
  ret void
}

; Function Attrs: mustprogress nounwind uwtable
define linkonce_odr noundef nonnull align 8 dereferenceable(8) ptr @_ZN9__gnu_cxx17__normal_iteratorIPKN5boost13intrusive_ptrIN8facebook5velox6BufferEEESt6vectorIS6_SaIS6_EEEppEv(ptr noundef nonnull align 8 dereferenceable(8) %this) #0 comdat align 2 {
entry:
  %this.addr = alloca ptr, align 8
  store ptr %this, ptr %this.addr, align 8
  %this1 = load ptr, ptr %this.addr, align 8
  %_M_current = getelementptr inbounds %"class.__gnu_cxx::__normal_iterator.277", ptr %this1, i32 0, i32 0
  %0 = load ptr, ptr %_M_current, align 8
  %incdec.ptr = getelementptr inbounds %"class.boost::intrusive_ptr", ptr %0, i32 1
  store ptr %incdec.ptr, ptr %_M_current, align 8
  ret ptr %this1
}

; Function Attrs: mustprogress nounwind uwtable
define linkonce_odr noundef i64 @_ZNK8facebook5velox6Buffer4sizeEv(ptr noundef nonnull align 8 dereferenceable(64) %this) #0 comdat align 2 {
entry:
  %this.addr = alloca ptr, align 8
  store ptr %this, ptr %this.addr, align 8
  %this1 = load ptr, ptr %this.addr, align 8
  %size_ = getelementptr inbounds %"class.facebook::velox::Buffer", ptr %this1, i32 0, i32 3
  %0 = load i64, ptr %size_, align 8
  ret i64 %0
}

; Function Attrs: mustprogress nounwind uwtable
define linkonce_odr noundef ptr @_ZNK5boost13intrusive_ptrIN8facebook5velox6BufferEEptEv(ptr noundef nonnull align 8 dereferenceable(8) %this) #0 comdat align 2 {
entry:
  %this.addr = alloca ptr, align 8
  store ptr %this, ptr %this.addr, align 8
  %this1 = load ptr, ptr %this.addr, align 8
  %px = getelementptr inbounds %"class.boost::intrusive_ptr", ptr %this1, i32 0, i32 0
  %0 = load ptr, ptr %px, align 8
  ret ptr %0
}

; Function Attrs: mustprogress nounwind uwtable
define linkonce_odr noundef nonnull align 8 dereferenceable(8) ptr @_ZNK9__gnu_cxx17__normal_iteratorIPKN5boost13intrusive_ptrIN8facebook5velox6BufferEEESt6vectorIS6_SaIS6_EEEdeEv(ptr noundef nonnull align 8 dereferenceable(8) %this) #0 comdat align 2 {
entry:
  %this.addr = alloca ptr, align 8
  store ptr %this, ptr %this.addr, align 8
  %this1 = load ptr, ptr %this.addr, align 8
  %_M_current = getelementptr inbounds %"class.__gnu_cxx::__normal_iterator.277", ptr %this1, i32 0, i32 0
  %0 = load ptr, ptr %_M_current, align 8
  ret ptr %0
}

; Function Attrs: mustprogress nounwind uwtable
define linkonce_odr noundef zeroext i1 @_ZN9__gnu_cxxneIPKN5boost13intrusive_ptrIN8facebook5velox6BufferEEESt6vectorIS6_SaIS6_EEEEbRKNS_17__normal_iteratorIT_T0_EESH_(ptr noundef nonnull align 8 dereferenceable(8) %__lhs, ptr noundef nonnull align 8 dereferenceable(8) %__rhs) #0 comdat {
entry:
  %__lhs.addr = alloca ptr, align 8
  %__rhs.addr = alloca ptr, align 8
  store ptr %__lhs, ptr %__lhs.addr, align 8
  store ptr %__rhs, ptr %__rhs.addr, align 8
  %0 = load ptr, ptr %__lhs.addr, align 8
  %call = call noundef nonnull align 8 dereferenceable(8) ptr @_ZNK9__gnu_cxx17__normal_iteratorIPKN5boost13intrusive_ptrIN8facebook5velox6BufferEEESt6vectorIS6_SaIS6_EEE4baseEv(ptr noundef nonnull align 8 dereferenceable(8) %0) #26
  %1 = load ptr, ptr %call, align 8
  %2 = load ptr, ptr %__rhs.addr, align 8
  %call1 = call noundef nonnull align 8 dereferenceable(8) ptr @_ZNK9__gnu_cxx17__normal_iteratorIPKN5boost13intrusive_ptrIN8facebook5velox6BufferEEESt6vectorIS6_SaIS6_EEE4baseEv(ptr noundef nonnull align 8 dereferenceable(8) %2) #26
  %3 = load ptr, ptr %call1, align 8
  %cmp = icmp ne ptr %1, %3
  ret i1 %cmp
}

; Function Attrs: mustprogress nounwind uwtable
define linkonce_odr ptr @_ZNKSt6vectorIN5boost13intrusive_ptrIN8facebook5velox6BufferEEESaIS5_EE3endEv(ptr noundef nonnull align 8 dereferenceable(24) %this) #0 comdat align 2 {
entry:
  %retval = alloca %"class.__gnu_cxx::__normal_iterator.277", align 8
  %this.addr = alloca ptr, align 8
  store ptr %this, ptr %this.addr, align 8
  %this1 = load ptr, ptr %this.addr, align 8
  %_M_impl = getelementptr inbounds %"struct.std::_Vector_base.58", ptr %this1, i32 0, i32 0
  %_M_finish = getelementptr inbounds %"struct.std::_Vector_base<boost::intrusive_ptr<facebook::velox::Buffer>, std::allocator<boost::intrusive_ptr<facebook::velox::Buffer>>>::_Vector_impl_data", ptr %_M_impl, i32 0, i32 1
  call void @_ZN9__gnu_cxx17__normal_iteratorIPKN5boost13intrusive_ptrIN8facebook5velox6BufferEEESt6vectorIS6_SaIS6_EEEC2ERKS8_(ptr noundef nonnull align 8 dereferenceable(8) %retval, ptr noundef nonnull align 8 dereferenceable(8) %_M_finish) #26
  %coerce.dive = getelementptr inbounds %"class.__gnu_cxx::__normal_iterator.277", ptr %retval, i32 0, i32 0
  %0 = load ptr, ptr %coerce.dive, align 8
  ret ptr %0
}

; Function Attrs: mustprogress nounwind uwtable
define linkonce_odr ptr @_ZNKSt6vectorIN5boost13intrusive_ptrIN8facebook5velox6BufferEEESaIS5_EE5beginEv(ptr noundef nonnull align 8 dereferenceable(24) %this) #0 comdat align 2 {
entry:
  %retval = alloca %"class.__gnu_cxx::__normal_iterator.277", align 8
  %this.addr = alloca ptr, align 8
  store ptr %this, ptr %this.addr, align 8
  %this1 = load ptr, ptr %this.addr, align 8
  %_M_impl = getelementptr inbounds %"struct.std::_Vector_base.58", ptr %this1, i32 0, i32 0
  %_M_start = getelementptr inbounds %"struct.std::_Vector_base<boost::intrusive_ptr<facebook::velox::Buffer>, std::allocator<boost::intrusive_ptr<facebook::velox::Buffer>>>::_Vector_impl_data", ptr %_M_impl, i32 0, i32 0
  call void @_ZN9__gnu_cxx17__normal_iteratorIPKN5boost13intrusive_ptrIN8facebook5velox6BufferEEESt6vectorIS6_SaIS6_EEEC2ERKS8_(ptr noundef nonnull align 8 dereferenceable(8) %retval, ptr noundef nonnull align 8 dereferenceable(8) %_M_start) #26
  %coerce.dive = getelementptr inbounds %"class.__gnu_cxx::__normal_iterator.277", ptr %retval, i32 0, i32 0
  %0 = load ptr, ptr %coerce.dive, align 8
  ret ptr %0
}

; Function Attrs: mustprogress nounwind uwtable
define internal noundef i64 @_ZNK8facebook5velox10serializer5spark12_GLOBAL__N_125UnsafeRowVectorSerializer17maxSerializedSizeEv(ptr noundef nonnull align 8 dereferenceable(40) %this) unnamed_addr #0 align 2 {
entry:
  %this.addr = alloca ptr, align 8
  %totalSize = alloca i64, align 8
  %__range4 = alloca ptr, align 8
  %__begin4 = alloca %"class.__gnu_cxx::__normal_iterator.277", align 8
  %__end4 = alloca %"class.__gnu_cxx::__normal_iterator.277", align 8
  %buffer = alloca ptr, align 8
  store ptr %this, ptr %this.addr, align 8
  %this1 = load ptr, ptr %this.addr, align 8
  store i64 0, ptr %totalSize, align 8
  %buffers_ = getelementptr inbounds %"class.facebook::velox::serializer::spark::(anonymous namespace)::UnsafeRowVectorSerializer", ptr %this1, i32 0, i32 2
  store ptr %buffers_, ptr %__range4, align 8
  %0 = load ptr, ptr %__range4, align 8
  %call = call ptr @_ZNKSt6vectorIN5boost13intrusive_ptrIN8facebook5velox6BufferEEESaIS5_EE5beginEv(ptr noundef nonnull align 8 dereferenceable(24) %0) #26
  %coerce.dive = getelementptr inbounds %"class.__gnu_cxx::__normal_iterator.277", ptr %__begin4, i32 0, i32 0
  store ptr %call, ptr %coerce.dive, align 8
  %1 = load ptr, ptr %__range4, align 8
  %call2 = call ptr @_ZNKSt6vectorIN5boost13intrusive_ptrIN8facebook5velox6BufferEEESaIS5_EE3endEv(ptr noundef nonnull align 8 dereferenceable(24) %1) #26
  %coerce.dive3 = getelementptr inbounds %"class.__gnu_cxx::__normal_iterator.277", ptr %__end4, i32 0, i32 0
  store ptr %call2, ptr %coerce.dive3, align 8
  br label %for.cond

for.cond:                                         ; preds = %for.inc, %entry
  %call4 = call noundef zeroext i1 @_ZN9__gnu_cxxneIPKN5boost13intrusive_ptrIN8facebook5velox6BufferEEESt6vectorIS6_SaIS6_EEEEbRKNS_17__normal_iteratorIT_T0_EESH_(ptr noundef nonnull align 8 dereferenceable(8) %__begin4, ptr noundef nonnull align 8 dereferenceable(8) %__end4) #26
  br i1 %call4, label %for.body, label %for.end

for.body:                                         ; preds = %for.cond
  %call5 = call noundef nonnull align 8 dereferenceable(8) ptr @_ZNK9__gnu_cxx17__normal_iteratorIPKN5boost13intrusive_ptrIN8facebook5velox6BufferEEESt6vectorIS6_SaIS6_EEEdeEv(ptr noundef nonnull align 8 dereferenceable(8) %__begin4) #26
  store ptr %call5, ptr %buffer, align 8
  %2 = load ptr, ptr %buffer, align 8
  %call6 = call noundef ptr @_ZNK5boost13intrusive_ptrIN8facebook5velox6BufferEEptEv(ptr noundef nonnull align 8 dereferenceable(8) %2) #26
  %call7 = call noundef i64 @_ZNK8facebook5velox6Buffer4sizeEv(ptr noundef nonnull align 8 dereferenceable(64) %call6)
  %3 = load i64, ptr %totalSize, align 8
  %add = add i64 %3, %call7
  store i64 %add, ptr %totalSize, align 8
  br label %for.inc

for.inc:                                          ; preds = %for.body
  %call8 = call noundef nonnull align 8 dereferenceable(8) ptr @_ZN9__gnu_cxx17__normal_iteratorIPKN5boost13intrusive_ptrIN8facebook5velox6BufferEEESt6vectorIS6_SaIS6_EEEppEv(ptr noundef nonnull align 8 dereferenceable(8) %__begin4) #26
  br label %for.cond

for.end:                                          ; preds = %for.cond
  %4 = load i64, ptr %totalSize, align 8
  ret i64 %4
}